; Function Attrs: mustprogress nofree norecurse nosync nounwind willreturn memory(read, argmem: readwrite, inaccessiblemem: none) uwtable
define hidden noundef zeroext i1 @_ZNK13proof_checker8match_opEPK4expriRPS0_S4_(ptr nocapture noundef nonnull readonly align 8 dereferenceable(156) %this, ptr nocapture noundef readonly %e, i32 noundef %k, ptr nocapture noundef nonnull writeonly align 8 dereferenceable(8) %t1, ptr nocapture noundef nonnull writeonly align 8 dereferenceable(8) %t2) local_unnamed_addr #9 align 2 {
entry:
  %m_kind.i = getelementptr inbounds i8, ptr %e, i64 4
  %bf.load.i = load i32, ptr %m_kind.i, align 4
  %bf.clear.i = and i32 %bf.load.i, 65535
  %cmp = icmp eq i32 %bf.clear.i, 0
  br i1 %cmp, label %land.lhs.true, label %return

land.lhs.true:                                    ; preds = %entry
  %m_decl.i.i = getelementptr inbounds i8, ptr %e, i64 16
  %0 = load ptr, ptr %m_decl.i.i, align 8
  %m_info.i.i = getelementptr inbounds i8, ptr %0, i64 24
  %1 = load ptr, ptr %m_info.i.i, align 8
  %cmp.i.i = icmp eq ptr %1, null
  br i1 %cmp.i.i, label %return, label %_ZNK3app13get_family_idEv.exit

_ZNK3app13get_family_idEv.exit:                   ; preds = %land.lhs.true
  %2 = load i32, ptr %1, align 8
  %cmp5 = icmp eq i32 %2, 0
  br i1 %cmp5, label %_ZNK3app13get_decl_kindEv.exit, label %return

_ZNK3app13get_decl_kindEv.exit:                   ; preds = %_ZNK3app13get_family_idEv.exit
  %m_kind.i.i.i = getelementptr inbounds i8, ptr %1, i64 4
  %3 = load i32, ptr %m_kind.i.i.i, align 4
  %cmp9 = icmp eq i32 %3, %k
  br i1 %cmp9, label %land.lhs.true10, label %return

land.lhs.true10:                                  ; preds = %_ZNK3app13get_decl_kindEv.exit
  %m_num_args.i = getelementptr inbounds i8, ptr %e, i64 24
  %4 = load i32, ptr %m_num_args.i, align 8
  %cmp13 = icmp eq i32 %4, 2
  br i1 %cmp13, label %if.then, label %return

if.then:                                          ; preds = %land.lhs.true10
  %m_args.i = getelementptr inbounds i8, ptr %e, i64 32
  %5 = load ptr, ptr %m_args.i, align 8
  store ptr %5, ptr %t1, align 8
  %arrayidx.i = getelementptr inbounds i8, ptr %e, i64 40
  %6 = load ptr, ptr %arrayidx.i, align 8
  store ptr %6, ptr %t2, align 8
  br label %return

return:                                           ; preds = %land.lhs.true, %entry, %_ZNK3app13get_family_idEv.exit, %_ZNK3app13get_decl_kindEv.exit, %land.lhs.true10, %if.then
  %retval.0 = phi i1 [ true, %if.then ], [ false, %land.lhs.true10 ], [ false, %_ZNK3app13get_decl_kindEv.exit ], [ false, %_ZNK3app13get_family_idEv.exit ], [ false, %entry ], [ false, %land.lhs.true ]
  ret i1 %retval.0
}